; Function Attrs: nounwind uwtable
define ptr @av_frame_clone(ptr noundef %0) local_unnamed_addr #0 {
  %2 = alloca ptr, align 8
  call void @llvm.lifetime.start.p0(i64 8, ptr nonnull %2) #8
  %3 = tail call noalias ptr @av_malloc(i64 noundef 416) #8
  %.not.i = icmp eq ptr %3, null
  br i1 %.not.i, label %av_frame_free.exit, label %4

4:                                                ; preds = %1
  tail call void @llvm.memset.p0.i64(ptr noundef nonnull align 8 dereferenceable(416) %3, i8 0, i64 408, i1 false)
  %5 = getelementptr inbounds nuw i8, ptr %3, i64 144
  store i64 -9223372036854775808, ptr %5, align 8, !tbaa !4
  %6 = getelementptr inbounds nuw i8, ptr %3, i64 136
  store i64 -9223372036854775808, ptr %6, align 8, !tbaa !19
  %7 = getelementptr inbounds nuw i8, ptr %3, i64 304
  store i64 -9223372036854775808, ptr %7, align 8, !tbaa !20
  %8 = getelementptr inbounds nuw i8, ptr %3, i64 408
  store i64 0, ptr %8, align 8, !tbaa !21
  %.sroa.22.0..sroa_idx.i.i = getelementptr inbounds nuw i8, ptr %3, i64 156
  store i32 1, ptr %.sroa.22.0..sroa_idx.i.i, align 4, !tbaa !22
  %.sroa.2.0..sroa_idx.i.i = getelementptr inbounds nuw i8, ptr %3, i64 128
  store i32 1, ptr %.sroa.2.0..sroa_idx.i.i, align 4, !tbaa !22
  %9 = getelementptr inbounds nuw i8, ptr %3, i64 116
  store i32 -1, ptr %9, align 4, !tbaa !23
  %10 = getelementptr inbounds nuw i8, ptr %3, i64 96
  store ptr %3, ptr %10, align 8, !tbaa !24
  %11 = getelementptr inbounds nuw i8, ptr %3, i64 284
  store i32 2, ptr %11, align 4, !tbaa !25
  %12 = getelementptr inbounds nuw i8, ptr %3, i64 288
  store i32 2, ptr %12, align 8, !tbaa !26
  %13 = getelementptr inbounds nuw i8, ptr %3, i64 292
  store i32 2, ptr %13, align 4, !tbaa !27
  store ptr %3, ptr %2, align 8, !tbaa !28
  %14 = tail call i32 @av_frame_ref(ptr noundef nonnull %3, ptr noundef %0)
  %15 = icmp slt i32 %14, 0
  br i1 %15, label %16, label %av_frame_free.exit

16:                                               ; preds = %4
  tail call void @av_frame_unref(ptr noundef nonnull %3)
  call void @av_freep(ptr noundef nonnull %2) #8
  %.pre = load ptr, ptr %2, align 8, !tbaa !28
  br label %av_frame_free.exit

av_frame_free.exit:                               ; preds = %1, %4, %16
  %.0 = phi ptr [ %.pre, %16 ], [ %3, %4 ], [ null, %1 ]
  call void @llvm.lifetime.end.p0(i64 8, ptr nonnull %2) #8
  ret ptr %.0
}